; Function Attrs: nounwind uwtable
define i32 @Bmc_LoadAddCnf_rec(ptr noundef captures(none) %0, i32 noundef %1) local_unnamed_addr #0 {
  %3 = getelementptr inbounds nuw i8, ptr %0, i64 8
  br label %tailrecurse

tailrecurse:                                      ; preds = %13, %2
  %.tr23 = phi i32 [ %1, %2 ], [ %25, %13 ]
  %ret.tr = phi i32 [ poison, %2 ], [ %current.ret.tr, %13 ]
  %ret.known.tr = phi i1 [ false, %2 ], [ true, %13 ]
  %4 = tail call i32 @Bmc_LoadGetSatVar(ptr noundef %0, i32 noundef %.tr23)
  %5 = load ptr, ptr %3, align 8, !tbaa !3
  %6 = getelementptr i8, ptr %5, i64 32
  %.val = load ptr, ptr %6, align 8, !tbaa !13
  %7 = sext i32 %.tr23 to i64
  %8 = getelementptr inbounds %struct.Gia_Obj_t_, ptr %.val, i64 %7
  %.val21 = load i64, ptr %8, align 4
  %9 = and i64 %.val21, 2147483648
  %.not.i = icmp ne i64 %9, 0
  %10 = and i64 %.val21, 536870911
  %11 = icmp eq i64 %10, 536870911
  %narrow.i.not = or i1 %.not.i, %11
  %12 = and i64 %.val21, 4611686019501129728
  %or.cond.not = icmp eq i64 %12, 4611686019501129728
  %or.cond = or i1 %or.cond.not, %narrow.i.not
  br i1 %or.cond, label %26, label %13

13:                                               ; preds = %tailrecurse
  %14 = shl nsw i32 %4, 1
  %15 = tail call i32 @Bmc_LoadAddCnf(ptr noundef nonnull %0, i32 noundef %14)
  %16 = or disjoint i32 %14, 1
  %17 = tail call i32 @Bmc_LoadAddCnf(ptr noundef nonnull %0, i32 noundef %16)
  %.val19 = load i64, ptr %8, align 4
  %18 = trunc i64 %.val19 to i32
  %19 = and i32 %18, 536870911
  %20 = sub nsw i32 %.tr23, %19
  %21 = tail call i32 @Bmc_LoadAddCnf_rec(ptr noundef nonnull %0, i32 noundef %20)
  %.val20 = load i64, ptr %8, align 4
  %22 = lshr i64 %.val20, 32
  %23 = trunc nuw i64 %22 to i32
  %24 = and i32 %23, 536870911
  %25 = sub nsw i32 %.tr23, %24
  %current.ret.tr = select i1 %ret.known.tr, i32 %ret.tr, i32 %4
  br label %tailrecurse

26:                                               ; preds = %tailrecurse
  %current.ret.tr24 = select i1 %ret.known.tr, i32 %ret.tr, i32 %4
  ret i32 %current.ret.tr24
}